(lp1
cnumpy.core.multiarray
_reconstruct
p2
(cnumpy
ndarray
p3
(I0
tS'b'
tRp4
(I1
(I2
tcnumpy
dtype
p5
(S'f8'
I0
I1
tRp6
(I3
S'<'
NNNI-1
I-1
I0
tbI00
S'\xb7<\xccJ\xc2\xf5\xc2BK5K\xd8nUxB'
tbag2
(g3
(I0
tS'b'
tRp7
(I1
(I2
tg6
I00
S'\x98N\x01\xd1\xa8W1A:\xe2\xe5\xc5<\x87lA'
tba.