(lp1
cnumpy.core.multiarray
_reconstruct
p2
(cnumpy
ndarray
p3
(I0
tS'b'
tRp4
(I1
(I2
tcnumpy
dtype
p5
(S'f8'
I0
I1
tRp6
(I3
S'<'
NNNI-1
I-1
I0
tbI00
S'l\xc9v\xde\xa2:\x85B\xd0\x01i?\xf1\x05\x05B'
tbag2
(g3
(I0
tS'b'
tRp7
(I1
(I2
tg6
I00
S'0\xba\xdc\x9elfr@\x8d\x96]\x051-\xa5@'
tba.