(lp1
cnumpy.core.multiarray
_reconstruct
p2
(cnumpy
ndarray
p3
(I0
tS'b'
tRp4
(I1
(I1
tcnumpy
dtype
p5
(S'f8'
I0
I1
tRp6
(I3
S'<'
NNNI-1
I-1
I0
tbI00
S'\x9e{\xe5s\x825\xb6B'
tbag2
(g3
(I0
tS'b'
tRp7
(I1
(I1
tg6
I00
S'\xb9j-~\xffS\x99A'
tba.