(lp1
cnumpy.core.multiarray
_reconstruct
p2
(cnumpy
ndarray
p3
(I0
tS'b'
tRp4
(I1
(I2
tcnumpy
dtype
p5
(S'f8'
I0
I1
tRp6
(I3
S'<'
NNNI-1
I-1
I0
tbI00
S'x\x19fL\x88\xcd\x9aB\nA\x82\x07G\xc9\\B'
tbag2
(g3
(I0
tS'b'
tRp7
(I1
(I2
tg6
I00
S'\xbcm\xbc\xfa\xd8t\xde@\xcbE\x81\xaf\xf5l\rA'
tba.