(lp1
cnumpy.core.multiarray
_reconstruct
p2
(cnumpy
ndarray
p3
(I0
tS'b'
tRp4
(I1
(I2
tcnumpy
dtype
p5
(S'f8'
I0
I1
tRp6
(I3
S'<'
NNNI-1
I-1
I0
tbI00
S'\xcc\xa9c4Q\xa3\xbdBc%\xe4\xdf\x7fYJB'
tbag2
(g3
(I0
tS'b'
tRp7
(I1
(I2
tg6
I00
S'\xb4\xf0\x1c\xf6aX\x06A\xe7\x06\xf8\xcf\xf6Y1A'
tba.