(lp1
cnumpy.core.multiarray
_reconstruct
p2
(cnumpy
ndarray
p3
(I0
tS'b'
tRp4
(I1
(I2
tcnumpy
dtype
p5
(S'f8'
I0
I1
tRp6
(I3
S'<'
NNNI-1
I-1
I0
tbI00
S'\xe4\x91]\xe0\x81\xcf\xb1B.9?|e?\xc0A'
tbag2
(g3
(I0
tS'b'
tRp7
(I1
(I2
tg6
I00
S'\x19fv#,\xc2\xa7AT\xf4\x85\xb2\xeb\xd8\xbeA'
tba.