(lp1
cnumpy.core.multiarray
_reconstruct
p2
(cnumpy
ndarray
p3
(I0
tS'b'
tRp4
(I1
(I1
tcnumpy
dtype
p5
(S'f8'
I0
I1
tRp6
(I3
S'<'
NNNI-1
I-1
I0
tbI00
S'\xb1\xc0L\x83\xed$\xa2B'
tbag2
(g3
(I0
tS'b'
tRp7
(I1
(I1
tg6
I00
S'\x16\x12\x1d.\x96#\x92A'
tba.