(lp1
cnumpy.core.multiarray
_reconstruct
p2
(cnumpy
ndarray
p3
(I0
tS'b'
tRp4
(I1
(I1
tcnumpy
dtype
p5
(S'f8'
I0
I1
tRp6
(I3
S'<'
NNNI-1
I-1
I0
tbI00
S'\x8fB\xc3\xb0\xb3\x8c\xafB'
tbag2
(g3
(I0
tS'b'
tRp7
(I1
(I1
tg6
I00
S'\x18c$\xe0\xdc;\xa0A'
tba.