(lp1
cnumpy.core.multiarray
_reconstruct
p2
(cnumpy
ndarray
p3
(I0
tS'b'
tRp4
(I1
(I2
tcnumpy
dtype
p5
(S'f8'
I0
I1
tRp6
(I3
S'<'
NNNI-1
I-1
I0
tbI00
S'd\xa0\x10\x8dpr\xb2B\xe4>\\A6\xb8^B'
tbag2
(g3
(I0
tS'b'
tRp7
(I1
(I2
tg6
I00
S'G\xe8Z\xa19M\xdbA\x88\xc2\xd3\x88Z\xc0\xd6A'
tba.